; Function Attrs: mustprogress uwtable
define void @_ZN3zmq14session_base_t12process_plugEv(ptr noundef nonnull align 8 dereferenceable(1624) %0) unnamed_addr #0 align 2 {
  %2 = getelementptr inbounds nuw i8, ptr %0, i64 1472
  %3 = load i8, ptr %2, align 8, !tbaa !56, !range !47, !noundef !48
  %4 = trunc nuw i8 %3 to i1
  br i1 %4, label %5, label %6

5:                                                ; preds = %1
  tail call void @_ZN3zmq14session_base_t16start_connectingEb(ptr noundef nonnull align 8 dereferenceable(1624) %0, i1 noundef zeroext false)
  br label %6

6:                                                ; preds = %5, %1
  ret void
}